target datalayout = "e-m:e-p270:32:32-p271:32:32-p272:64:64-i64:64-i128:128-f80:128-n8:16:32:64-S128"
target triple = "x86_64-pc-linux-gnu"

%struct.SDL_GPUDevice = type { ptr, ptr, ptr, ptr, ptr, ptr, ptr, ptr, ptr, ptr, ptr, ptr, ptr, ptr, ptr, ptr, ptr, ptr, ptr, ptr, ptr, ptr, ptr, ptr, ptr, ptr, ptr, ptr, ptr, ptr, ptr, ptr, ptr, ptr, ptr, ptr, ptr, ptr, ptr, ptr, ptr, ptr, ptr, ptr, ptr, ptr, ptr, ptr, ptr, ptr, ptr, ptr, ptr, ptr, ptr, ptr, ptr, ptr, ptr, ptr, ptr, ptr, ptr, ptr, ptr, ptr, ptr, ptr, ptr, ptr, ptr, ptr, ptr, ptr, ptr, ptr, ptr, ptr, ptr, ptr, ptr, ptr, ptr, ptr, ptr, i32, i8 }
%struct.CommandBufferCommonHeader = type { ptr, %struct.RenderPass, i8, %struct.Pass, i8, %struct.Pass, i8, i8, i8 }
%struct.RenderPass = type { ptr, i8, [4 x ptr], i32, ptr }
%struct.Pass = type { ptr, i8 }

@.str.4 = private unnamed_addr constant [26 x i8] c"Parameter '%s' is invalid\00", align 1
@.str.8 = private unnamed_addr constant [103 x i8] c"generated/home/dtcxzyw/WorkSpace/Projects/compilers/llvm-opt-benchmark/bench/sdl/SDL/src/gpu/SDL_gpu.c\00", align 1
@.str.225 = private unnamed_addr constant [12 x i8] c"render_pass\00", align 1
@SDL_EndGPURenderPass_REAL.sdl_assert_data = internal global { i8, [3 x i8], i32, ptr, ptr, i32, [4 x i8], ptr, ptr } { i8 0, [3 x i8] zeroinitializer, i32 0, ptr @.str.229, ptr null, i32 0, [4 x i8] zeroinitializer, ptr null, ptr null }, align 8
@__func__.SDL_EndGPURenderPass_REAL = private unnamed_addr constant [26 x i8] c"SDL_EndGPURenderPass_REAL\00", align 1

; Function Attrs: nounwind uwtable
define hidden void @SDL_EndGPURenderPass_REAL(ptr noundef %0) #0 {
  %2 = alloca ptr, align 8
  %3 = alloca ptr, align 8
  %4 = alloca i32, align 4
  %5 = alloca i32, align 4
  %6 = alloca i32, align 4
  store ptr %0, ptr %2, align 8
  call void @llvm.lifetime.start.p0(i64 8, ptr %3) #6
  %7 = load ptr, ptr %2, align 8
  %8 = icmp eq ptr %7, null
  br i1 %8, label %9, label %11

9:                                                ; preds = %1
  %10 = call zeroext i1 (ptr, ...) @SDL_SetError_REAL(ptr noundef @.str.4, ptr noundef @.str.225)
  store i32 1, ptr %4, align 4
  br label %85

11:                                               ; preds = %1
  %12 = load ptr, ptr %2, align 8
  %13 = getelementptr inbounds nuw %struct.RenderPass, ptr %12, i32 0, i32 0
  %14 = load ptr, ptr %13, align 8
  %15 = getelementptr inbounds nuw %struct.CommandBufferCommonHeader, ptr %14, i32 0, i32 0
  %16 = load ptr, ptr %15, align 8
  %17 = getelementptr inbounds nuw %struct.SDL_GPUDevice, ptr %16, i32 0, i32 86
  %18 = load i8, ptr %17, align 4, !range !5, !noundef !6
  %19 = trunc i8 %18 to i1
  br i1 %19, label %20, label %45

20:                                               ; preds = %11
  %21 = load ptr, ptr %2, align 8
  %22 = getelementptr inbounds nuw %struct.RenderPass, ptr %21, i32 0, i32 1
  %23 = load i8, ptr %22, align 8, !range !5, !noundef !6
  %24 = trunc i8 %23 to i1
  br i1 %24, label %44, label %25

25:                                               ; preds = %20
  br label %26

26:                                               ; preds = %25
  br label %27

27:                                               ; preds = %39, %26
  br label %28

28:                                               ; preds = %27
  call void @llvm.lifetime.start.p0(i64 4, ptr %5) #6
  %29 = call i32 @SDL_ReportAssertion_REAL(ptr noundef @SDL_EndGPURenderPass_REAL.sdl_assert_data, ptr noundef @__func__.SDL_EndGPURenderPass_REAL, ptr noundef @.str.8, i32 noundef 2133)
  store i32 %29, ptr %5, align 4
  %30 = load i32, ptr %5, align 4
  %31 = icmp eq i32 %30, 0
  br i1 %31, label %32, label %33

32:                                               ; preds = %28
  store i32 4, ptr %4, align 4
  br label %39

33:                                               ; preds = %28
  %34 = load i32, ptr %5, align 4
  %35 = icmp eq i32 %34, 1
  br i1 %35, label %36, label %37

36:                                               ; preds = %33
  call void @llvm.debugtrap()
  br label %37

37:                                               ; preds = %36, %33
  br label %38

38:                                               ; preds = %37
  store i32 5, ptr %4, align 4
  br label %39

39:                                               ; preds = %38, %32
  call void @llvm.lifetime.end.p0(i64 4, ptr %5) #6
  %40 = load i32, ptr %4, align 4
  switch i32 %40, label %88 [
    i32 4, label %27
    i32 5, label %41
  ]

41:                                               ; preds = %39
  br label %42

42:                                               ; preds = %41
  br label %43

43:                                               ; preds = %42
  store i32 1, ptr %4, align 4
  br label %85

44:                                               ; preds = %20
  br label %45

45:                                               ; preds = %44, %11
  %46 = load ptr, ptr %2, align 8
  %47 = getelementptr inbounds nuw %struct.RenderPass, ptr %46, i32 0, i32 0
  %48 = load ptr, ptr %47, align 8
  %49 = getelementptr inbounds nuw %struct.CommandBufferCommonHeader, ptr %48, i32 0, i32 0
  %50 = load ptr, ptr %49, align 8
  %51 = getelementptr inbounds nuw %struct.SDL_GPUDevice, ptr %50, i32 0, i32 41
  %52 = load ptr, ptr %51, align 8
  %53 = load ptr, ptr %2, align 8
  %54 = getelementptr inbounds nuw %struct.RenderPass, ptr %53, i32 0, i32 0
  %55 = load ptr, ptr %54, align 8
  call void %52(ptr noundef %55)
  %56 = load ptr, ptr %2, align 8
  %57 = getelementptr inbounds nuw %struct.RenderPass, ptr %56, i32 0, i32 0
  %58 = load ptr, ptr %57, align 8
  store ptr %58, ptr %3, align 8
  %59 = load ptr, ptr %3, align 8
  %60 = getelementptr inbounds nuw %struct.CommandBufferCommonHeader, ptr %59, i32 0, i32 1
  %61 = getelementptr inbounds nuw %struct.RenderPass, ptr %60, i32 0, i32 1
  store i8 0, ptr %61, align 8
  call void @llvm.lifetime.start.p0(i64 4, ptr %6) #6
  store i32 0, ptr %6, align 4
  br label %62

62:                                               ; preds = %73, %45
  %63 = load i32, ptr %6, align 4
  %64 = icmp ult i32 %63, 4
  br i1 %64, label %66, label %65

65:                                               ; preds = %62
  store i32 6, ptr %4, align 4
  call void @llvm.lifetime.end.p0(i64 4, ptr %6) #6
  br label %76

66:                                               ; preds = %62
  %67 = load ptr, ptr %3, align 8
  %68 = getelementptr inbounds nuw %struct.CommandBufferCommonHeader, ptr %67, i32 0, i32 1
  %69 = getelementptr inbounds nuw %struct.RenderPass, ptr %68, i32 0, i32 2
  %70 = load i32, ptr %6, align 4
  %71 = zext i32 %70 to i64
  %72 = getelementptr inbounds nuw [4 x ptr], ptr %69, i64 0, i64 %71
  store ptr null, ptr %72, align 8
  br label %73

73:                                               ; preds = %66
  %74 = load i32, ptr %6, align 4
  %75 = add i32 %74, 1
  store i32 %75, ptr %6, align 4
  br label %62, !llvm.loop !16

76:                                               ; preds = %65
  %77 = load ptr, ptr %3, align 8
  %78 = getelementptr inbounds nuw %struct.CommandBufferCommonHeader, ptr %77, i32 0, i32 1
  %79 = getelementptr inbounds nuw %struct.RenderPass, ptr %78, i32 0, i32 3
  store i32 0, ptr %79, align 8
  %80 = load ptr, ptr %3, align 8
  %81 = getelementptr inbounds nuw %struct.CommandBufferCommonHeader, ptr %80, i32 0, i32 1
  %82 = getelementptr inbounds nuw %struct.RenderPass, ptr %81, i32 0, i32 4
  store ptr null, ptr %82, align 8
  %83 = load ptr, ptr %3, align 8
  %84 = getelementptr inbounds nuw %struct.CommandBufferCommonHeader, ptr %83, i32 0, i32 2
  store i8 0, ptr %84, align 8
  store i32 0, ptr %4, align 4
  br label %85

85:                                               ; preds = %76, %43, %9
  call void @llvm.lifetime.end.p0(i64 8, ptr %3) #6
  %86 = load i32, ptr %4, align 4
  switch i32 %86, label %88 [
    i32 0, label %87
    i32 1, label %87
  ]

87:                                               ; preds = %85, %85
  ret void

88:                                               ; preds = %85, %39
  unreachable
}